; Function Attrs: nofree norecurse nosync nounwind memory(none) uwtable
define hidden i64 @lj_carith_powi64(i64 noundef %0, i64 noundef %1) local_unnamed_addr #5 {
  %3 = icmp eq i64 %1, 0
  br i1 %3, label %lj_carith_powu64.exit, label %4

4:                                                ; preds = %2
  %5 = icmp slt i64 %1, 0
  br i1 %5, label %6, label %.preheader26.i

6:                                                ; preds = %4
  switch i64 %0, label %11 [
    i64 0, label %lj_carith_powu64.exit
    i64 1, label %7
    i64 -1, label %8
  ]

7:                                                ; preds = %6
  br label %lj_carith_powu64.exit

8:                                                ; preds = %6
  %9 = and i64 %1, 1
  %.not = icmp eq i64 %9, 0
  %10 = select i1 %.not, i64 1, i64 -1
  br label %lj_carith_powu64.exit

11:                                               ; preds = %6
  br label %lj_carith_powu64.exit

.preheader26.i:                                   ; preds = %4
  %12 = and i64 %1, 1
  %13 = icmp eq i64 %12, 0
  br i1 %13, label %.lr.ph.i, label %._crit_edge.i

.lr.ph.i:                                         ; preds = %.preheader26.i, %.lr.ph.i
  %.01828.i = phi i64 [ %15, %.lr.ph.i ], [ %1, %.preheader26.i ]
  %.02027.i = phi i64 [ %14, %.lr.ph.i ], [ %0, %.preheader26.i ]
  %14 = mul i64 %.02027.i, %.02027.i
  %15 = lshr exact i64 %.01828.i, 1
  %16 = and i64 %.01828.i, 2
  %17 = icmp eq i64 %16, 0
  br i1 %17, label %.lr.ph.i, label %._crit_edge.i, !llvm.loop !58

._crit_edge.i:                                    ; preds = %.lr.ph.i, %.preheader26.i
  %.020.lcssa.i = phi i64 [ %0, %.preheader26.i ], [ %14, %.lr.ph.i ]
  %.018.lcssa.i = phi i64 [ %1, %.preheader26.i ], [ %15, %.lr.ph.i ]
  %.not.i = icmp samesign ult i64 %.018.lcssa.i, 2
  br i1 %.not.i, label %lj_carith_powu64.exit, label %.preheader.i

.preheader.i:                                     ; preds = %._crit_edge.i
  %.11930.i = lshr i64 %.018.lcssa.i, 1
  %18 = mul i64 %.020.lcssa.i, %.020.lcssa.i
  %19 = icmp eq i64 %.11930.i, 1
  br i1 %19, label %._crit_edge35.i, label %.lr.ph34.i

.lr.ph34.i:                                       ; preds = %.preheader.i, %.lr.ph34.i
  %20 = phi i64 [ %23, %.lr.ph34.i ], [ %18, %.preheader.i ]
  %.11933.i = phi i64 [ %.119.i, %.lr.ph34.i ], [ %.11930.i, %.preheader.i ]
  %.132.i = phi i64 [ %spec.select.i, %.lr.ph34.i ], [ %.020.lcssa.i, %.preheader.i ]
  %.119.in31.i = phi i64 [ %.11933.i, %.lr.ph34.i ], [ %.018.lcssa.i, %.preheader.i ]
  %21 = and i64 %.119.in31.i, 2
  %.not25.i = icmp eq i64 %21, 0
  %22 = select i1 %.not25.i, i64 1, i64 %20
  %spec.select.i = mul i64 %22, %.132.i
  %.119.i = lshr i64 %.11933.i, 1
  %23 = mul i64 %20, %20
  %24 = icmp eq i64 %.119.i, 1
  br i1 %24, label %._crit_edge35.i, label %.lr.ph34.i

._crit_edge35.i:                                  ; preds = %.lr.ph34.i, %.preheader.i
  %.1.lcssa.i = phi i64 [ %.020.lcssa.i, %.preheader.i ], [ %spec.select.i, %.lr.ph34.i ]
  %.lcssa.i = phi i64 [ %18, %.preheader.i ], [ %23, %.lr.ph34.i ]
  %25 = mul i64 %.lcssa.i, %.1.lcssa.i
  br label %lj_carith_powu64.exit

lj_carith_powu64.exit:                            ; preds = %._crit_edge35.i, %._crit_edge.i, %6, %2, %11, %8, %7
  %.0 = phi i64 [ 1, %7 ], [ %10, %8 ], [ 0, %11 ], [ 1, %2 ], [ 9223372036854775807, %6 ], [ %25, %._crit_edge35.i ], [ %.020.lcssa.i, %._crit_edge.i ]
  ret i64 %.0
}